target datalayout = "e-m:e-p270:32:32-p271:32:32-p272:64:64-i64:64-i128:128-f80:128-n8:16:32:64-S128"
target triple = "x86_64-pc-linux-gnu"

%struct.wl_list = type { ptr, ptr }
%struct.SDL_MimeDataList = type { ptr, ptr, i64, %struct.wl_list }
%struct.SDL_WaylandPrimarySelectionOffer = type { ptr, %struct.wl_list, ptr }

@WAYLAND_wl_list_insert = external global ptr, align 8

; Function Attrs: nounwind uwtable
define internal ptr @mime_data_list_find(ptr noundef %0, ptr noundef %1) #0 {
  %3 = alloca ptr, align 8
  %4 = alloca ptr, align 8
  %5 = alloca ptr, align 8
  %6 = alloca ptr, align 8
  store ptr %0, ptr %3, align 8
  store ptr %1, ptr %4, align 8
  call void @llvm.lifetime.start.p0(i64 8, ptr %5) #9
  store ptr null, ptr %5, align 8
  call void @llvm.lifetime.start.p0(i64 8, ptr %6) #9
  store ptr null, ptr %6, align 8
  %7 = load ptr, ptr %3, align 8
  %8 = getelementptr inbounds nuw %struct.wl_list, ptr %7, i32 0, i32 1
  %9 = load ptr, ptr %8, align 8
  %10 = getelementptr inbounds i8, ptr %9, i64 -24
  store ptr %10, ptr %6, align 8
  br label %11

11:                                               ; preds = %26, %2
  %12 = load ptr, ptr %6, align 8
  %13 = getelementptr inbounds nuw %struct.SDL_MimeDataList, ptr %12, i32 0, i32 3
  %14 = load ptr, ptr %3, align 8
  %15 = icmp ne ptr %13, %14
  br i1 %15, label %16, label %32

16:                                               ; preds = %11
  %17 = load ptr, ptr %6, align 8
  %18 = getelementptr inbounds nuw %struct.SDL_MimeDataList, ptr %17, i32 0, i32 0
  %19 = load ptr, ptr %18, align 8
  %20 = load ptr, ptr %4, align 8
  %21 = call i32 @SDL_strcmp_REAL(ptr noundef %19, ptr noundef %20)
  %22 = icmp eq i32 %21, 0
  br i1 %22, label %23, label %25

23:                                               ; preds = %16
  %24 = load ptr, ptr %6, align 8
  store ptr %24, ptr %5, align 8
  br label %32

25:                                               ; preds = %16
  br label %26

26:                                               ; preds = %25
  %27 = load ptr, ptr %6, align 8
  %28 = getelementptr inbounds nuw %struct.SDL_MimeDataList, ptr %27, i32 0, i32 3
  %29 = getelementptr inbounds nuw %struct.wl_list, ptr %28, i32 0, i32 1
  %30 = load ptr, ptr %29, align 8
  %31 = getelementptr inbounds i8, ptr %30, i64 -24
  store ptr %31, ptr %6, align 8
  br label %11, !llvm.loop !11

32:                                               ; preds = %23, %11
  %33 = load ptr, ptr %5, align 8
  call void @llvm.lifetime.end.p0(i64 8, ptr %6) #9
  call void @llvm.lifetime.end.p0(i64 8, ptr %5) #9
  ret ptr %33
}

; Function Attrs: nounwind uwtable
define internal zeroext i1 @mime_data_list_add(ptr noundef %0, ptr noundef %1, ptr noundef %2, i64 noundef %3) #0 {
  %5 = alloca i1, align 1
  %6 = alloca ptr, align 8
  %7 = alloca ptr, align 8
  %8 = alloca ptr, align 8
  %9 = alloca i64, align 8
  %10 = alloca i8, align 1
  %11 = alloca i64, align 8
  %12 = alloca ptr, align 8
  %13 = alloca ptr, align 8
  %14 = alloca i32, align 4
  store ptr %0, ptr %6, align 8
  store ptr %1, ptr %7, align 8
  store ptr %2, ptr %8, align 8
  store i64 %3, ptr %9, align 8
  call void @llvm.lifetime.start.p0(i64 1, ptr %10) #9
  store i8 1, ptr %10, align 1
  call void @llvm.lifetime.start.p0(i64 8, ptr %11) #9
  store i64 0, ptr %11, align 8
  call void @llvm.lifetime.start.p0(i64 8, ptr %12) #9
  store ptr null, ptr %12, align 8
  call void @llvm.lifetime.start.p0(i64 8, ptr %13) #9
  store ptr null, ptr %13, align 8
  %15 = load ptr, ptr %8, align 8
  %16 = icmp ne ptr %15, null
  br i1 %16, label %17, label %27

17:                                               ; preds = %4
  %18 = load i64, ptr %9, align 8
  %19 = call noalias ptr @SDL_malloc_REAL(i64 noundef %18)
  store ptr %19, ptr %13, align 8
  %20 = load ptr, ptr %13, align 8
  %21 = icmp ne ptr %20, null
  br i1 %21, label %23, label %22

22:                                               ; preds = %17
  store i1 false, ptr %5, align 1
  store i32 1, ptr %14, align 4
  br label %93

23:                                               ; preds = %17
  %24 = load ptr, ptr %13, align 8
  %25 = load ptr, ptr %8, align 8
  %26 = load i64, ptr %9, align 8
  call void @llvm.memcpy.p0.p0.i64(ptr align 1 %24, ptr align 1 %25, i64 %26, i1 false)
  br label %27

27:                                               ; preds = %23, %4
  %28 = load ptr, ptr %6, align 8
  %29 = load ptr, ptr %7, align 8
  %30 = call ptr @mime_data_list_find(ptr noundef %28, ptr noundef %29)
  store ptr %30, ptr %12, align 8
  %31 = load ptr, ptr %12, align 8
  %32 = icmp ne ptr %31, null
  br i1 %32, label %63, label %33

33:                                               ; preds = %27
  %34 = call noalias ptr @SDL_calloc_REAL(i64 noundef 1, i64 noundef 40) #11
  store ptr %34, ptr %12, align 8
  %35 = load ptr, ptr %12, align 8
  %36 = icmp ne ptr %35, null
  br i1 %36, label %38, label %37

37:                                               ; preds = %33
  store i8 0, ptr %10, align 1
  br label %62

38:                                               ; preds = %33
  %39 = load ptr, ptr @WAYLAND_wl_list_insert, align 8
  %40 = load ptr, ptr %6, align 8
  %41 = load ptr, ptr %12, align 8
  %42 = getelementptr inbounds nuw %struct.SDL_MimeDataList, ptr %41, i32 0, i32 3
  call void %39(ptr noundef %40, ptr noundef %42)
  %43 = load ptr, ptr %7, align 8
  %44 = call i64 @SDL_strlen_REAL(ptr noundef %43)
  %45 = add i64 %44, 1
  store i64 %45, ptr %11, align 8
  %46 = load i64, ptr %11, align 8
  %47 = call noalias ptr @SDL_malloc_REAL(i64 noundef %46)
  %48 = load ptr, ptr %12, align 8
  %49 = getelementptr inbounds nuw %struct.SDL_MimeDataList, ptr %48, i32 0, i32 0
  store ptr %47, ptr %49, align 8
  %50 = load ptr, ptr %12, align 8
  %51 = getelementptr inbounds nuw %struct.SDL_MimeDataList, ptr %50, i32 0, i32 0
  %52 = load ptr, ptr %51, align 8
  %53 = icmp ne ptr %52, null
  br i1 %53, label %55, label %54

54:                                               ; preds = %38
  store i8 0, ptr %10, align 1
  br label %61

55:                                               ; preds = %38
  %56 = load ptr, ptr %12, align 8
  %57 = getelementptr inbounds nuw %struct.SDL_MimeDataList, ptr %56, i32 0, i32 0
  %58 = load ptr, ptr %57, align 8
  %59 = load ptr, ptr %7, align 8
  %60 = load i64, ptr %11, align 8
  call void @llvm.memcpy.p0.p0.i64(ptr align 1 %58, ptr align 1 %59, i64 %60, i1 false)
  br label %61

61:                                               ; preds = %55, %54
  br label %62

62:                                               ; preds = %61, %37
  br label %63

63:                                               ; preds = %62, %27
  %64 = load ptr, ptr %12, align 8
  %65 = icmp ne ptr %64, null
  br i1 %65, label %66, label %88

66:                                               ; preds = %63
  %67 = load ptr, ptr %8, align 8
  %68 = icmp ne ptr %67, null
  br i1 %68, label %69, label %88

69:                                               ; preds = %66
  %70 = load i64, ptr %9, align 8
  %71 = icmp ugt i64 %70, 0
  br i1 %71, label %72, label %88

72:                                               ; preds = %69
  %73 = load ptr, ptr %12, align 8
  %74 = getelementptr inbounds nuw %struct.SDL_MimeDataList, ptr %73, i32 0, i32 1
  %75 = load ptr, ptr %74, align 8
  %76 = icmp ne ptr %75, null
  br i1 %76, label %77, label %81

77:                                               ; preds = %72
  %78 = load ptr, ptr %12, align 8
  %79 = getelementptr inbounds nuw %struct.SDL_MimeDataList, ptr %78, i32 0, i32 1
  %80 = load ptr, ptr %79, align 8
  call void @SDL_free_REAL(ptr noundef %80)
  br label %81

81:                                               ; preds = %77, %72
  %82 = load ptr, ptr %13, align 8
  %83 = load ptr, ptr %12, align 8
  %84 = getelementptr inbounds nuw %struct.SDL_MimeDataList, ptr %83, i32 0, i32 1
  store ptr %82, ptr %84, align 8
  %85 = load i64, ptr %9, align 8
  %86 = load ptr, ptr %12, align 8
  %87 = getelementptr inbounds nuw %struct.SDL_MimeDataList, ptr %86, i32 0, i32 2
  store i64 %85, ptr %87, align 8
  br label %90

88:                                               ; preds = %69, %66, %63
  %89 = load ptr, ptr %13, align 8
  call void @SDL_free_REAL(ptr noundef %89)
  br label %90

90:                                               ; preds = %88, %81
  %91 = load i8, ptr %10, align 1, !range !5, !noundef !6
  %92 = trunc i8 %91 to i1
  store i1 %92, ptr %5, align 1
  store i32 1, ptr %14, align 4
  br label %93

93:                                               ; preds = %90, %22
  call void @llvm.lifetime.end.p0(i64 8, ptr %13) #9
  call void @llvm.lifetime.end.p0(i64 8, ptr %12) #9
  call void @llvm.lifetime.end.p0(i64 8, ptr %11) #9
  call void @llvm.lifetime.end.p0(i64 1, ptr %10) #9
  %94 = load i1, ptr %5, align 1
  ret i1 %94
}

; Function Attrs: nounwind uwtable
define hidden zeroext i1 @Wayland_primary_selection_offer_add_mime(ptr noundef %0, ptr noundef %1) #0 {
  %3 = alloca ptr, align 8
  %4 = alloca ptr, align 8
  store ptr %0, ptr %3, align 8
  store ptr %1, ptr %4, align 8
  %5 = load ptr, ptr %3, align 8
  %6 = getelementptr inbounds nuw %struct.SDL_WaylandPrimarySelectionOffer, ptr %5, i32 0, i32 1
  %7 = load ptr, ptr %4, align 8
  %8 = call zeroext i1 @mime_data_list_add(ptr noundef %6, ptr noundef %7, ptr noundef null, i64 noundef 0)
  ret i1 %8
}